target datalayout = "e-m:e-p270:32:32-p271:32:32-p272:64:64-i64:64-i128:128-f80:128-n8:16:32:64-S128"
target triple = "x86_64-pc-linux-gnu"

%"class.llvm::DWARFDie" = type { ptr, ptr }
%"class.llvm::SmallVectorBase" = type { ptr, i32, i32 }
%"class.llvm::DWARFAbbreviationDeclaration" = type { i32, i16, i8, i8, %"class.llvm::SmallVector.55", %"class.std::optional.60" }
%"class.llvm::SmallVector.55" = type { %"class.llvm::SmallVectorImpl.56", %"struct.llvm::SmallVectorStorage.59" }
%"class.llvm::SmallVectorImpl.56" = type { %"class.llvm::SmallVectorTemplateBase.57" }
%"class.llvm::SmallVectorTemplateBase.57" = type { %"class.llvm::SmallVectorTemplateCommon.58" }
%"class.llvm::SmallVectorTemplateCommon.58" = type { %"class.llvm::SmallVectorBase" }
%"struct.llvm::SmallVectorStorage.59" = type { [128 x i8] }
%"class.std::optional.60" = type { %"struct.std::_Optional_base.61" }
%"struct.std::_Optional_base.61" = type { %"struct.std::_Optional_payload.63" }
%"struct.std::_Optional_payload.63" = type { %"struct.std::_Optional_payload_base.base.65", i8 }
%"struct.std::_Optional_payload_base.base.65" = type { %"union.std::_Optional_payload_base<llvm::DWARFAbbreviationDeclaration::FixedSizeInfo>::_Storage", i8 }
%"union.std::_Optional_payload_base<llvm::DWARFAbbreviationDeclaration::FixedSizeInfo>::_Storage" = type { %"struct.llvm::DWARFAbbreviationDeclaration::FixedSizeInfo" }
%"struct.llvm::DWARFAbbreviationDeclaration::FixedSizeInfo" = type <{ i16, i8, i8, i8, i8 }>
%"class.llvm::DWARFDebugInfoEntry" = type { i64, i32, i32, ptr }

; Function Attrs: mustprogress nounwind uwtable
define linkonce_odr hidden noundef ptr @_ZNK4llvm19DWARFDebugInfoEntry29getAbbreviationDeclarationPtrEv(ptr noundef nonnull align 8 dereferenceable(24) %0) #0 comdat align 2 {
  %2 = alloca ptr, align 8
  store ptr %0, ptr %2, align 8
  %3 = load ptr, ptr %2, align 8
  %4 = getelementptr inbounds nuw %"class.llvm::DWARFDebugInfoEntry", ptr %3, i32 0, i32 3
  %5 = load ptr, ptr %4, align 8
  ret ptr %5
}

; Function Attrs: mustprogress nounwind uwtable
define linkonce_odr hidden noundef zeroext i16 @_ZNK4llvm28DWARFAbbreviationDeclaration6getTagEv(ptr noundef nonnull align 8 dereferenceable(160) %0) #0 comdat align 2 {
  %2 = alloca ptr, align 8
  store ptr %0, ptr %2, align 8
  %3 = load ptr, ptr %2, align 8
  %4 = getelementptr inbounds nuw %"class.llvm::DWARFAbbreviationDeclaration", ptr %3, i32 0, i32 1
  %5 = load i16, ptr %4, align 4
  ret i16 %5
}

; Function Attrs: mustprogress nounwind uwtable
define linkonce_odr hidden noundef ptr @_ZNK4llvm8DWARFDie29getAbbreviationDeclarationPtrEv(ptr noundef nonnull align 8 dereferenceable(16) %0) #0 comdat align 2 {
  %2 = alloca ptr, align 8
  store ptr %0, ptr %2, align 8
  %3 = load ptr, ptr %2, align 8
  %4 = getelementptr inbounds nuw %"class.llvm::DWARFDie", ptr %3, i32 0, i32 1
  %5 = load ptr, ptr %4, align 8
  %6 = call noundef ptr @_ZNK4llvm19DWARFDebugInfoEntry29getAbbreviationDeclarationPtrEv(ptr noundef nonnull align 8 dereferenceable(24) %5)
  ret ptr %6
}

; Function Attrs: mustprogress nounwind uwtable
define linkonce_odr hidden noundef zeroext i1 @_ZNK4llvm8DWARFDie7isValidEv(ptr noundef nonnull align 8 dereferenceable(16) %0) #0 comdat align 2 {
  %2 = alloca ptr, align 8
  store ptr %0, ptr %2, align 8
  %3 = load ptr, ptr %2, align 8
  %4 = getelementptr inbounds nuw %"class.llvm::DWARFDie", ptr %3, i32 0, i32 0
  %5 = load ptr, ptr %4, align 8
  %6 = icmp ne ptr %5, null
  br i1 %6, label %7, label %11

7:                                                ; preds = %1
  %8 = getelementptr inbounds nuw %"class.llvm::DWARFDie", ptr %3, i32 0, i32 1
  %9 = load ptr, ptr %8, align 8
  %10 = icmp ne ptr %9, null
  br label %11

11:                                               ; preds = %7, %1
  %12 = phi i1 [ false, %1 ], [ %10, %7 ]
  ret i1 %12
}

; Function Attrs: mustprogress nounwind uwtable
define dso_local void @_ZN4llvm16DWARFTypePrinter21appendUnqualifiedNameENS_8DWARFDieEPNSt7__cxx1112basic_stringIcSt11char_traitsIcESaIcEEE(ptr noundef nonnull align 8 dereferenceable(10) %0, ptr %1, ptr %2, ptr noundef %3) #0 align 2 {
  %5 = alloca %"class.llvm::DWARFDie", align 8
  %6 = alloca ptr, align 8
  %7 = alloca ptr, align 8
  %8 = alloca %"class.llvm::DWARFDie", align 8
  %9 = alloca %"class.llvm::DWARFDie", align 8
  %10 = alloca %"class.llvm::DWARFDie", align 8
  %11 = alloca %"class.llvm::DWARFDie", align 8
  %12 = getelementptr inbounds nuw { ptr, ptr }, ptr %5, i32 0, i32 0
  store ptr %1, ptr %12, align 8
  %13 = getelementptr inbounds nuw { ptr, ptr }, ptr %5, i32 0, i32 1
  store ptr %2, ptr %13, align 8
  store ptr %0, ptr %6, align 8
  store ptr %3, ptr %7, align 8
  %14 = load ptr, ptr %6, align 8
  call void @llvm.memcpy.p0.p0.i64(ptr align 8 %9, ptr align 8 %5, i64 16, i1 false)
  %15 = load ptr, ptr %7, align 8
  %16 = getelementptr inbounds nuw { ptr, ptr }, ptr %9, i32 0, i32 0
  %17 = load ptr, ptr %16, align 8
  %18 = getelementptr inbounds nuw { ptr, ptr }, ptr %9, i32 0, i32 1
  %19 = load ptr, ptr %18, align 8
  %20 = call { ptr, ptr } @_ZN4llvm16DWARFTypePrinter27appendUnqualifiedNameBeforeENS_8DWARFDieEPNSt7__cxx1112basic_stringIcSt11char_traitsIcESaIcEEE(ptr noundef nonnull align 8 dereferenceable(10) %14, ptr %17, ptr %19, ptr noundef %15)
  %21 = getelementptr inbounds nuw { ptr, ptr }, ptr %8, i32 0, i32 0
  %22 = extractvalue { ptr, ptr } %20, 0
  store ptr %22, ptr %21, align 8
  %23 = getelementptr inbounds nuw { ptr, ptr }, ptr %8, i32 0, i32 1
  %24 = extractvalue { ptr, ptr } %20, 1
  store ptr %24, ptr %23, align 8
  call void @llvm.memcpy.p0.p0.i64(ptr align 8 %10, ptr align 8 %5, i64 16, i1 false)
  call void @llvm.memcpy.p0.p0.i64(ptr align 8 %11, ptr align 8 %8, i64 16, i1 false)
  %25 = getelementptr inbounds nuw { ptr, ptr }, ptr %10, i32 0, i32 0
  %26 = load ptr, ptr %25, align 8
  %27 = getelementptr inbounds nuw { ptr, ptr }, ptr %10, i32 0, i32 1
  %28 = load ptr, ptr %27, align 8
  %29 = getelementptr inbounds nuw { ptr, ptr }, ptr %11, i32 0, i32 0
  %30 = load ptr, ptr %29, align 8
  %31 = getelementptr inbounds nuw { ptr, ptr }, ptr %11, i32 0, i32 1
  %32 = load ptr, ptr %31, align 8
  call void @_ZN4llvm16DWARFTypePrinter26appendUnqualifiedNameAfterENS_8DWARFDieES1_b(ptr noundef nonnull align 8 dereferenceable(10) %14, ptr %26, ptr %28, ptr %30, ptr %32, i1 noundef zeroext false)
  ret void
}

; Function Attrs: mustprogress nounwind uwtable
define internal noundef zeroext i1 @_ZN4llvmL10scopedTAGsENS_5dwarf3TagE(i16 noundef zeroext %0) #0 {
  %2 = alloca i1, align 1
  %3 = alloca i16, align 2
  store i16 %0, ptr %3, align 2
  %4 = load i16, ptr %3, align 2
  %5 = zext i16 %4 to i32
  switch i32 %5, label %7 [
    i32 19, label %6
    i32 2, label %6
    i32 23, label %6
    i32 57, label %6
    i32 4, label %6
  ]

6:                                                ; preds = %1, %1, %1, %1, %1
  store i1 true, ptr %2, align 1
  br label %9

7:                                                ; preds = %1
  br label %8

8:                                                ; preds = %7
  store i1 false, ptr %2, align 1
  br label %9

9:                                                ; preds = %8, %6
  %10 = load i1, ptr %2, align 1
  ret i1 %10
}

; Function Attrs: mustprogress nounwind uwtable
define linkonce_odr hidden noundef zeroext i16 @_ZNK4llvm8DWARFDie6getTagEv(ptr noundef nonnull align 8 dereferenceable(16) %0) #0 comdat align 2 {
  %2 = alloca i16, align 2
  %3 = alloca ptr, align 8
  %4 = alloca ptr, align 8
  store ptr %0, ptr %3, align 8
  %5 = load ptr, ptr %3, align 8
  %6 = call noundef ptr @_ZNK4llvm8DWARFDie29getAbbreviationDeclarationPtrEv(ptr noundef nonnull align 8 dereferenceable(16) %5)
  store ptr %6, ptr %4, align 8
  %7 = load ptr, ptr %4, align 8
  %8 = icmp ne ptr %7, null
  br i1 %8, label %9, label %12

9:                                                ; preds = %1
  %10 = load ptr, ptr %4, align 8
  %11 = call noundef zeroext i16 @_ZNK4llvm28DWARFAbbreviationDeclaration6getTagEv(ptr noundef nonnull align 8 dereferenceable(160) %10)
  store i16 %11, ptr %2, align 2
  br label %13

12:                                               ; preds = %1
  store i16 0, ptr %2, align 2
  br label %13

13:                                               ; preds = %12, %9
  %14 = load i16, ptr %2, align 2
  ret i16 %14
}

; Function Attrs: mustprogress nounwind uwtable
define linkonce_odr hidden noundef zeroext i1 @_ZNK4llvm8DWARFDiecvbEv(ptr noundef nonnull align 8 dereferenceable(16) %0) #0 comdat align 2 {
  %2 = alloca ptr, align 8
  store ptr %0, ptr %2, align 8
  %3 = load ptr, ptr %2, align 8
  %4 = call noundef zeroext i1 @_ZNK4llvm8DWARFDie7isValidEv(ptr noundef nonnull align 8 dereferenceable(16) %3)
  ret i1 %4
}

; Function Attrs: mustprogress nounwind uwtable
define dso_local void @_ZN4llvm16DWARFTypePrinter19appendQualifiedNameENS_8DWARFDieE(ptr noundef nonnull align 8 dereferenceable(10) %0, ptr %1, ptr %2) #0 align 2 {
  %4 = alloca %"class.llvm::DWARFDie", align 8
  %5 = alloca ptr, align 8
  %6 = alloca %"class.llvm::DWARFDie", align 8
  %7 = alloca %"class.llvm::DWARFDie", align 8
  %8 = getelementptr inbounds nuw { ptr, ptr }, ptr %4, i32 0, i32 0
  store ptr %1, ptr %8, align 8
  %9 = getelementptr inbounds nuw { ptr, ptr }, ptr %4, i32 0, i32 1
  store ptr %2, ptr %9, align 8
  store ptr %0, ptr %5, align 8
  %10 = load ptr, ptr %5, align 8
  %11 = call noundef zeroext i1 @_ZNK4llvm8DWARFDiecvbEv(ptr noundef nonnull align 8 dereferenceable(16) %4)
  br i1 %11, label %12, label %25

12:                                               ; preds = %3
  %13 = call noundef zeroext i16 @_ZNK4llvm8DWARFDie6getTagEv(ptr noundef nonnull align 8 dereferenceable(16) %4)
  %14 = call noundef zeroext i1 @_ZN4llvmL10scopedTAGsENS_5dwarf3TagE(i16 noundef zeroext %13)
  br i1 %14, label %15, label %25

15:                                               ; preds = %12
  %16 = call { ptr, ptr } @_ZNK4llvm8DWARFDie9getParentEv(ptr noundef nonnull align 8 dereferenceable(16) %4)
  %17 = getelementptr inbounds nuw { ptr, ptr }, ptr %6, i32 0, i32 0
  %18 = extractvalue { ptr, ptr } %16, 0
  store ptr %18, ptr %17, align 8
  %19 = getelementptr inbounds nuw { ptr, ptr }, ptr %6, i32 0, i32 1
  %20 = extractvalue { ptr, ptr } %16, 1
  store ptr %20, ptr %19, align 8
  %21 = getelementptr inbounds nuw { ptr, ptr }, ptr %6, i32 0, i32 0
  %22 = load ptr, ptr %21, align 8
  %23 = getelementptr inbounds nuw { ptr, ptr }, ptr %6, i32 0, i32 1
  %24 = load ptr, ptr %23, align 8
  call void @_ZN4llvm16DWARFTypePrinter12appendScopesENS_8DWARFDieE(ptr noundef nonnull align 8 dereferenceable(10) %10, ptr %22, ptr %24)
  br label %25

25:                                               ; preds = %15, %12, %3
  call void @llvm.memcpy.p0.p0.i64(ptr align 8 %7, ptr align 8 %4, i64 16, i1 false)
  %26 = getelementptr inbounds nuw { ptr, ptr }, ptr %7, i32 0, i32 0
  %27 = load ptr, ptr %26, align 8
  %28 = getelementptr inbounds nuw { ptr, ptr }, ptr %7, i32 0, i32 1
  %29 = load ptr, ptr %28, align 8
  call void @_ZN4llvm16DWARFTypePrinter21appendUnqualifiedNameENS_8DWARFDieEPNSt7__cxx1112basic_stringIcSt11char_traitsIcESaIcEEE(ptr noundef nonnull align 8 dereferenceable(10) %10, ptr %27, ptr %29, ptr noundef null)
  ret void
}