; Function Attrs: mustprogress nounwind uwtable
define dso_local void @_ZN4llvm16DWARFTypePrinter19appendQualifiedNameENS_8DWARFDieE(ptr noundef nonnull align 8 captures(none) dereferenceable(10) %0, ptr %1, ptr %2) local_unnamed_addr #0 align 2 {
  %4 = alloca %"class.llvm::DWARFDie", align 8
  store ptr %1, ptr %4, align 8
  %5 = getelementptr inbounds nuw i8, ptr %4, i64 8
  store ptr %2, ptr %5, align 8
  %.not.i.i = icmp ne ptr %1, null
  %6 = icmp ne ptr %2, null
  %7 = select i1 %.not.i.i, i1 %6, i1 false
  br i1 %7, label %8, label %_ZN4llvmL10scopedTAGsENS_5dwarf3TagE.exit

8:                                                ; preds = %3
  %9 = getelementptr inbounds nuw i8, ptr %2, i64 16
  %10 = load ptr, ptr %9, align 8
  %.not.i = icmp eq ptr %10, null
  br i1 %.not.i, label %_ZN4llvmL10scopedTAGsENS_5dwarf3TagE.exit, label %_ZNK4llvm8DWARFDie6getTagEv.exit

_ZNK4llvm8DWARFDie6getTagEv.exit:                 ; preds = %8
  %11 = getelementptr inbounds nuw i8, ptr %10, i64 4
  %12 = load i16, ptr %11, align 4
  switch i16 %12, label %_ZN4llvmL10scopedTAGsENS_5dwarf3TagE.exit [
    i16 19, label %13
    i16 2, label %13
    i16 23, label %13
    i16 57, label %13
    i16 4, label %13
  ]

13:                                               ; preds = %_ZNK4llvm8DWARFDie6getTagEv.exit, %_ZNK4llvm8DWARFDie6getTagEv.exit, %_ZNK4llvm8DWARFDie6getTagEv.exit, %_ZNK4llvm8DWARFDie6getTagEv.exit, %_ZNK4llvm8DWARFDie6getTagEv.exit
  %14 = call { ptr, ptr } @_ZNK4llvm8DWARFDie9getParentEv(ptr noundef nonnull align 8 dereferenceable(16) %4) #16
  %15 = extractvalue { ptr, ptr } %14, 0
  %16 = extractvalue { ptr, ptr } %14, 1
  call void @_ZN4llvm16DWARFTypePrinter12appendScopesENS_8DWARFDieE(ptr noundef nonnull align 8 dereferenceable(10) %0, ptr %15, ptr %16)
  %.sroa.0.0.copyload.pre = load ptr, ptr %4, align 8
  %.sroa.2.0.copyload.pre = load ptr, ptr %5, align 8
  br label %_ZN4llvmL10scopedTAGsENS_5dwarf3TagE.exit

_ZN4llvmL10scopedTAGsENS_5dwarf3TagE.exit:        ; preds = %8, %_ZNK4llvm8DWARFDie6getTagEv.exit, %13, %3
  %.sroa.2.0.copyload = phi ptr [ %2, %8 ], [ %2, %_ZNK4llvm8DWARFDie6getTagEv.exit ], [ %.sroa.2.0.copyload.pre, %13 ], [ %2, %3 ]
  %.sroa.0.0.copyload = phi ptr [ %1, %8 ], [ %1, %_ZNK4llvm8DWARFDie6getTagEv.exit ], [ %.sroa.0.0.copyload.pre, %13 ], [ %1, %3 ]
  %17 = call { ptr, ptr } @_ZN4llvm16DWARFTypePrinter27appendUnqualifiedNameBeforeENS_8DWARFDieEPNSt7__cxx1112basic_stringIcSt11char_traitsIcESaIcEEE(ptr noundef nonnull align 8 dereferenceable(10) %0, ptr %.sroa.0.0.copyload, ptr %.sroa.2.0.copyload, ptr noundef null)
  %18 = extractvalue { ptr, ptr } %17, 0
  %19 = extractvalue { ptr, ptr } %17, 1
  call void @_ZN4llvm16DWARFTypePrinter26appendUnqualifiedNameAfterENS_8DWARFDieES1_b(ptr noundef nonnull align 8 dereferenceable(10) %0, ptr %.sroa.0.0.copyload, ptr %.sroa.2.0.copyload, ptr %18, ptr %19, i1 noundef zeroext false)
  ret void
}